target datalayout = "e-m:e-p270:32:32-p271:32:32-p272:64:64-i64:64-i128:128-f80:128-n8:16:32:64-S128"
target triple = "x86_64-pc-linux-gnu"

%"struct.Luau::CodeGen::A64::RegisterA64" = type { i8 }
%class.anon.259 = type { i8 }

@_ZN4Luau7CodeGen3A64L2x0E = internal constant %"struct.Luau::CodeGen::A64::RegisterA64" { i8 2 }, align 1
@__const._ZZN12_GLOBAL__N_121DOCTEST_ANON_CLASS_331fEvENKUlRN4Luau7CodeGen3A6418AssemblyBuilderA64EE_clES5_.arr = private unnamed_addr constant [12 x i8] c"hello world\00", align 1

; Function Attrs: mustprogress uwtable
define internal void @_ZZN12_GLOBAL__N_121DOCTEST_ANON_CLASS_331fEvENKUlRN4Luau7CodeGen3A6418AssemblyBuilderA64EE_clES5_(ptr noundef nonnull align 1 dereferenceable(1) %0, ptr noundef nonnull align 8 dereferenceable(176) %1) #4 align 2 {
  %3 = alloca ptr, align 8
  %4 = alloca ptr, align 8
  %5 = alloca [12 x i8], align 1
  %6 = alloca %"struct.Luau::CodeGen::A64::RegisterA64", align 1
  %7 = alloca %"struct.Luau::CodeGen::A64::RegisterA64", align 1
  %8 = alloca %"struct.Luau::CodeGen::A64::RegisterA64", align 1
  store ptr %0, ptr %3, align 8
  store ptr %1, ptr %4, align 8
  call void @llvm.memcpy.p0.p0.i64(ptr align 1 %5, ptr align 1 @__const._ZZN12_GLOBAL__N_121DOCTEST_ANON_CLASS_331fEvENKUlRN4Luau7CodeGen3A6418AssemblyBuilderA64EE_clES5_.arr, i64 12, i1 false)
  %9 = load ptr, ptr %4, align 8
  call void @llvm.memcpy.p0.p0.i64(ptr align 1 %6, ptr align 1 @_ZN4Luau7CodeGen3A64L2x0E, i64 1, i1 false)
  %10 = getelementptr inbounds [12 x i8], ptr %5, i64 0, i64 0
  %11 = getelementptr inbounds %"struct.Luau::CodeGen::A64::RegisterA64", ptr %6, i32 0, i32 0
  %12 = load i8, ptr %11, align 1
  call void @_ZN4Luau7CodeGen3A6418AssemblyBuilderA643adrENS1_11RegisterA64EPKvm(ptr noundef nonnull align 8 dereferenceable(176) %9, i8 %12, ptr noundef %10, i64 noundef 12)
  %13 = load ptr, ptr %4, align 8
  call void @llvm.memcpy.p0.p0.i64(ptr align 1 %7, ptr align 1 @_ZN4Luau7CodeGen3A64L2x0E, i64 1, i1 false)
  %14 = getelementptr inbounds %"struct.Luau::CodeGen::A64::RegisterA64", ptr %7, i32 0, i32 0
  %15 = load i8, ptr %14, align 1
  call void @_ZN4Luau7CodeGen3A6418AssemblyBuilderA643adrENS1_11RegisterA64Em(ptr noundef nonnull align 8 dereferenceable(176) %13, i8 %15, i64 noundef 1311768467139281697)
  %16 = load ptr, ptr %4, align 8
  call void @llvm.memcpy.p0.p0.i64(ptr align 1 %8, ptr align 1 @_ZN4Luau7CodeGen3A64L2x0E, i64 1, i1 false)
  %17 = getelementptr inbounds %"struct.Luau::CodeGen::A64::RegisterA64", ptr %8, i32 0, i32 0
  %18 = load i8, ptr %17, align 1
  call void @_ZN4Luau7CodeGen3A6418AssemblyBuilderA643adrENS1_11RegisterA64Ed(ptr noundef nonnull align 8 dereferenceable(176) %16, i8 %18, double noundef 1.000000e+00)
  ret void
}

; Function Attrs: mustprogress uwtable
define internal void @_ZZN12_GLOBAL__N_121DOCTEST_ANON_CLASS_331fEvENUlRN4Luau7CodeGen3A6418AssemblyBuilderA64EE_8__invokeES5_(ptr noundef nonnull align 8 dereferenceable(176) %0) #4 align 2 {
  %2 = alloca ptr, align 8
  %3 = alloca %class.anon.259, align 1
  store ptr %0, ptr %2, align 8
  %4 = load ptr, ptr %2, align 8
  call void @_ZZN12_GLOBAL__N_121DOCTEST_ANON_CLASS_331fEvENKUlRN4Luau7CodeGen3A6418AssemblyBuilderA64EE_clES5_(ptr noundef nonnull align 1 dereferenceable(1) %3, ptr noundef nonnull align 8 dereferenceable(176) %4)
  ret void
}