; Function Attrs: mustprogress uwtable
define internal void @_ZZN12_GLOBAL__N_121DOCTEST_ANON_CLASS_331fEvENUlRN4Luau7CodeGen3A6418AssemblyBuilderA64EE_8__invokeES5_(ptr noundef nonnull align 8 dereferenceable(176) %0) #2 align 2 {
  %2 = alloca [12 x i8], align 1
  call void @llvm.lifetime.start.p0(i64 12, ptr nonnull %2)
  call void @llvm.memcpy.p0.p0.i64(ptr noundef nonnull align 1 dereferenceable(12) %2, ptr noundef nonnull align 1 dereferenceable(12) @__const._ZZN12_GLOBAL__N_121DOCTEST_ANON_CLASS_331fEvENKUlRN4Luau7CodeGen3A6418AssemblyBuilderA64EE_clES5_.arr, i64 12, i1 false)
  call void @_ZN4Luau7CodeGen3A6418AssemblyBuilderA643adrENS1_11RegisterA64EPKvm(ptr noundef nonnull align 8 dereferenceable(176) %0, i8 2, ptr noundef nonnull %2, i64 noundef 12)
  call void @_ZN4Luau7CodeGen3A6418AssemblyBuilderA643adrENS1_11RegisterA64Em(ptr noundef nonnull align 8 dereferenceable(176) %0, i8 2, i64 noundef 1311768467139281697)
  call void @_ZN4Luau7CodeGen3A6418AssemblyBuilderA643adrENS1_11RegisterA64Ed(ptr noundef nonnull align 8 dereferenceable(176) %0, i8 2, double noundef 1.000000e+00)
  call void @llvm.lifetime.end.p0(i64 12, ptr nonnull %2)
  ret void
}